target datalayout = "e-m:e-p270:32:32-p271:32:32-p272:64:64-i64:64-i128:128-f80:128-n8:16:32:64-S128"
target triple = "x86_64-pc-linux-gnu"

%struct.gv_font_map = type { ptr, ptr }

@stderr = external global ptr, align 8
@.str.116 = private unnamed_addr constant [30 x i8] c" [%zu] %s => <Not available>\0A\00", align 1
@.str.117 = private unnamed_addr constant [19 x i8] c" [%zu] %s => \22%s\22\0A\00", align 1

; Function Attrs: nounwind uwtable
define internal void @printFontMap(ptr noundef %0, i64 noundef %1) #0 {
  %3 = alloca ptr, align 8
  %4 = alloca i64, align 8
  %5 = alloca ptr, align 8
  %6 = alloca i64, align 8
  store ptr %0, ptr %3, align 8, !tbaa !8
  store i64 %1, ptr %4, align 8, !tbaa !9
  call void @llvm.lifetime.start.p0(i64 8, ptr %5) #13
  call void @llvm.lifetime.start.p0(i64 8, ptr %6) #13
  store i64 0, ptr %6, align 8, !tbaa !9
  br label %7

7:                                                ; preds = %40, %2
  %8 = load i64, ptr %6, align 8, !tbaa !9
  %9 = load i64, ptr %4, align 8, !tbaa !9
  %10 = icmp ult i64 %8, %9
  br i1 %10, label %12, label %11

11:                                               ; preds = %7
  call void @llvm.lifetime.end.p0(i64 8, ptr %6) #13
  br label %43

12:                                               ; preds = %7
  %13 = load ptr, ptr %3, align 8, !tbaa !8
  %14 = load i64, ptr %6, align 8, !tbaa !9
  %15 = getelementptr inbounds nuw %struct.gv_font_map, ptr %13, i64 %14
  %16 = getelementptr inbounds nuw %struct.gv_font_map, ptr %15, i32 0, i32 1
  %17 = load ptr, ptr %16, align 8, !tbaa !20
  store ptr %17, ptr %5, align 8, !tbaa !36
  %18 = load ptr, ptr %5, align 8, !tbaa !36
  %19 = icmp ne ptr %18, null
  br i1 %19, label %29, label %20

20:                                               ; preds = %12
  %21 = load ptr, ptr @stderr, align 8, !tbaa !24
  %22 = load i64, ptr %6, align 8, !tbaa !9
  %23 = load ptr, ptr %3, align 8, !tbaa !8
  %24 = load i64, ptr %6, align 8, !tbaa !9
  %25 = getelementptr inbounds nuw %struct.gv_font_map, ptr %23, i64 %24
  %26 = getelementptr inbounds nuw %struct.gv_font_map, ptr %25, i32 0, i32 0
  %27 = load ptr, ptr %26, align 8, !tbaa !18
  %28 = call i32 (ptr, ptr, ...) @fprintf(ptr noundef %21, ptr noundef @.str.116, i64 noundef %22, ptr noundef %27) #13
  br label %39

29:                                               ; preds = %12
  %30 = load ptr, ptr @stderr, align 8, !tbaa !24
  %31 = load i64, ptr %6, align 8, !tbaa !9
  %32 = load ptr, ptr %3, align 8, !tbaa !8
  %33 = load i64, ptr %6, align 8, !tbaa !9
  %34 = getelementptr inbounds nuw %struct.gv_font_map, ptr %32, i64 %33
  %35 = getelementptr inbounds nuw %struct.gv_font_map, ptr %34, i32 0, i32 0
  %36 = load ptr, ptr %35, align 8, !tbaa !18
  %37 = load ptr, ptr %5, align 8, !tbaa !36
  %38 = call i32 (ptr, ptr, ...) @fprintf(ptr noundef %30, ptr noundef @.str.117, i64 noundef %31, ptr noundef %36, ptr noundef %37) #13
  br label %39

39:                                               ; preds = %29, %20
  br label %40

40:                                               ; preds = %39
  %41 = load i64, ptr %6, align 8, !tbaa !9
  %42 = add i64 %41, 1
  store i64 %42, ptr %6, align 8, !tbaa !9
  br label %7, !llvm.loop !55

43:                                               ; preds = %11
  call void @llvm.lifetime.end.p0(i64 8, ptr %5) #13
  ret void
}