; Function Attrs: cold nofree nounwind uwtable
define internal fastcc void @printFontMap(ptr noundef readonly captures(none) %0) unnamed_addr #4 {
  br label %3

2:                                                ; preds = %13
  ret void

3:                                                ; preds = %1, %13
  %.013 = phi i64 [ 0, %1 ], [ %14, %13 ]
  %4 = getelementptr inbounds nuw %struct.gv_font_map, ptr %0, i64 %.013
  %5 = getelementptr inbounds nuw i8, ptr %4, i64 8
  %6 = load ptr, ptr %5, align 8, !tbaa !59
  %.not = icmp eq ptr %6, null
  %7 = load ptr, ptr @stderr, align 8, !tbaa !3
  %8 = load ptr, ptr %4, align 8, !tbaa !51
  br i1 %.not, label %9, label %11

9:                                                ; preds = %3
  %10 = tail call i32 (ptr, ptr, ...) @fprintf(ptr noundef %7, ptr noundef nonnull @.str.116, i64 noundef %.013, ptr noundef %8) #20
  br label %13

11:                                               ; preds = %3
  %12 = tail call i32 (ptr, ptr, ...) @fprintf(ptr noundef %7, ptr noundef nonnull @.str.117, i64 noundef %.013, ptr noundef %8, ptr noundef nonnull %6) #20
  br label %13

13:                                               ; preds = %9, %11
  %14 = add nuw nsw i64 %.013, 1
  %exitcond.not = icmp eq i64 %14, 35
  br i1 %exitcond.not, label %2, label %3, !llvm.loop !61
}